(lp0
Vbren
p1
ag1
ag1
ag1
ag1
ag1
ag1
ag1
ag1
ag1
ag1
ag1
ag1
ag1
ag1
aVbren_mom
p2
ag2
ag2
ag2
ag2
ag2
ag2
aVfabri
p3
ag3
ag3
ag3
ag3
ag3
ag3
ag3
ag3
ag3
ag3
aVfabri_mom
p4
ag4
ag4
ag4
ag4
ag4
ag4
ag4
ag4
ag4
aVtievo
p5
ag5
ag5
ag5
ag5
ag5
ag5
ag5
ag5
ag5
ag5
ag5
ag5
ag5
ag5
ag5
ag5
ag5
ag5
ag5
ag5
aVtievo_dad
p6
ag6
ag6
ag6
ag6
ag6
ag6
ag6
ag6
ag6
ag6
ag6
aVtievo_mom
p7
ag7
ag7
ag7
ag7
ag7
ag7
ag7
ag7
ag7
aVtievo_sis
p8
ag8
ag8
ag8
ag8
ag8
ag8
ag8
ag8
ag8
ag8
ag8
a.