(lp0
cnumpy.core.multiarray
scalar
p1
(cnumpy
dtype
p2
(VU4
p3
I0
I1
tp4
Rp5
(I3
V<
p6
NNNI16
I4
I8
tp7
bc_codecs
encode
p8
(Vb\u0000\u0000\u0000r\u0000\u0000\u0000e\u0000\u0000\u0000n\u0000\u0000\u0000
p9
Vlatin1
p10
tp11
Rp12
tp13
Rp14
ag1
(g2
(VU4
p15
I0
I1
tp16
Rp17
(I3
g6
NNNI16
I4
I8
tp18
bg8
(Vb\u0000\u0000\u0000r\u0000\u0000\u0000e\u0000\u0000\u0000n\u0000\u0000\u0000
p19
g10
tp20
Rp21
tp22
Rp23
ag1
(g2
(VU4
p24
I0
I1
tp25
Rp26
(I3
g6
NNNI16
I4
I8
tp27
bg8
(Vb\u0000\u0000\u0000r\u0000\u0000\u0000e\u0000\u0000\u0000n\u0000\u0000\u0000
p28
g10
tp29
Rp30
tp31
Rp32
ag1
(g2
(VU4
p33
I0
I1
tp34
Rp35
(I3
g6
NNNI16
I4
I8
tp36
bg8
(Vb\u0000\u0000\u0000r\u0000\u0000\u0000e\u0000\u0000\u0000n\u0000\u0000\u0000
p37
g10
tp38
Rp39
tp40
Rp41
ag1
(g2
(VU4
p42
I0
I1
tp43
Rp44
(I3
g6
NNNI16
I4
I8
tp45
bg8
(Vb\u0000\u0000\u0000r\u0000\u0000\u0000e\u0000\u0000\u0000n\u0000\u0000\u0000
p46
g10
tp47
Rp48
tp49
Rp50
ag1
(g2
(VU4
p51
I0
I1
tp52
Rp53
(I3
g6
NNNI16
I4
I8
tp54
bg8
(Vb\u0000\u0000\u0000r\u0000\u0000\u0000e\u0000\u0000\u0000n\u0000\u0000\u0000
p55
g10
tp56
Rp57
tp58
Rp59
ag1
(g2
(VU4
p60
I0
I1
tp61
Rp62
(I3
g6
NNNI16
I4
I8
tp63
bg8
(Vb\u0000\u0000\u0000r\u0000\u0000\u0000e\u0000\u0000\u0000n\u0000\u0000\u0000
p64
g10
tp65
Rp66
tp67
Rp68
ag1
(g2
(VU4
p69
I0
I1
tp70
Rp71
(I3
g6
NNNI16
I4
I8
tp72
bg8
(Vb\u0000\u0000\u0000r\u0000\u0000\u0000e\u0000\u0000\u0000n\u0000\u0000\u0000
p73
g10
tp74
Rp75
tp76
Rp77
ag1
(g2
(VU4
p78
I0
I1
tp79
Rp80
(I3
g6
NNNI16
I4
I8
tp81
bg8
(Vb\u0000\u0000\u0000r\u0000\u0000\u0000e\u0000\u0000\u0000n\u0000\u0000\u0000
p82
g10
tp83
Rp84
tp85
Rp86
ag1
(g2
(VU4
p87
I0
I1
tp88
Rp89
(I3
g6
NNNI16
I4
I8
tp90
bg8
(Vb\u0000\u0000\u0000r\u0000\u0000\u0000e\u0000\u0000\u0000n\u0000\u0000\u0000
p91
g10
tp92
Rp93
tp94
Rp95
ag1
(g2
(VU4
p96
I0
I1
tp97
Rp98
(I3
g6
NNNI16
I4
I8
tp99
bg8
(Vb\u0000\u0000\u0000r\u0000\u0000\u0000e\u0000\u0000\u0000n\u0000\u0000\u0000
p100
g10
tp101
Rp102
tp103
Rp104
ag1
(g2
(VU4
p105
I0
I1
tp106
Rp107
(I3
g6
NNNI16
I4
I8
tp108
bg8
(Vb\u0000\u0000\u0000r\u0000\u0000\u0000e\u0000\u0000\u0000n\u0000\u0000\u0000
p109
g10
tp110
Rp111
tp112
Rp113
ag1
(g2
(VU4
p114
I0
I1
tp115
Rp116
(I3
g6
NNNI16
I4
I8
tp117
bg8
(Vb\u0000\u0000\u0000r\u0000\u0000\u0000e\u0000\u0000\u0000n\u0000\u0000\u0000
p118
g10
tp119
Rp120
tp121
Rp122
ag1
(g2
(VU4
p123
I0
I1
tp124
Rp125
(I3
g6
NNNI16
I4
I8
tp126
bg8
(Vb\u0000\u0000\u0000r\u0000\u0000\u0000e\u0000\u0000\u0000n\u0000\u0000\u0000
p127
g10
tp128
Rp129
tp130
Rp131
ag1
(g2
(VU8
p132
I0
I1
tp133
Rp134
(I3
g6
NNNI32
I4
I8
tp135
bg8
(Vb\u0000\u0000\u0000r\u0000\u0000\u0000e\u0000\u0000\u0000n\u0000\u0000\u0000_\u0000\u0000\u0000m\u0000\u0000\u0000o\u0000\u0000\u0000m\u0000\u0000\u0000
p136
g10
tp137
Rp138
tp139
Rp140
ag1
(g2
(VU8
p141
I0
I1
tp142
Rp143
(I3
g6
NNNI32
I4
I8
tp144
bg8
(Vb\u0000\u0000\u0000r\u0000\u0000\u0000e\u0000\u0000\u0000n\u0000\u0000\u0000_\u0000\u0000\u0000m\u0000\u0000\u0000o\u0000\u0000\u0000m\u0000\u0000\u0000
p145
g10
tp146
Rp147
tp148
Rp149
ag1
(g2
(VU8
p150
I0
I1
tp151
Rp152
(I3
g6
NNNI32
I4
I8
tp153
bg8
(Vb\u0000\u0000\u0000r\u0000\u0000\u0000e\u0000\u0000\u0000n\u0000\u0000\u0000_\u0000\u0000\u0000m\u0000\u0000\u0000o\u0000\u0000\u0000m\u0000\u0000\u0000
p154
g10
tp155
Rp156
tp157
Rp158
ag1
(g2
(VU8
p159
I0
I1
tp160
Rp161
(I3
g6
NNNI32
I4
I8
tp162
bg8
(Vb\u0000\u0000\u0000r\u0000\u0000\u0000e\u0000\u0000\u0000n\u0000\u0000\u0000_\u0000\u0000\u0000m\u0000\u0000\u0000o\u0000\u0000\u0000m\u0000\u0000\u0000
p163
g10
tp164
Rp165
tp166
Rp167
ag1
(g2
(VU8
p168
I0
I1
tp169
Rp170
(I3
g6
NNNI32
I4
I8
tp171
bg8
(Vb\u0000\u0000\u0000r\u0000\u0000\u0000e\u0000\u0000\u0000n\u0000\u0000\u0000_\u0000\u0000\u0000m\u0000\u0000\u0000o\u0000\u0000\u0000m\u0000\u0000\u0000
p172
g10
tp173
Rp174
tp175
Rp176
ag1
(g2
(VU8
p177
I0
I1
tp178
Rp179
(I3
g6
NNNI32
I4
I8
tp180
bg8
(Vb\u0000\u0000\u0000r\u0000\u0000\u0000e\u0000\u0000\u0000n\u0000\u0000\u0000_\u0000\u0000\u0000m\u0000\u0000\u0000o\u0000\u0000\u0000m\u0000\u0000\u0000
p181
g10
tp182
Rp183
tp184
Rp185
ag1
(g2
(VU8
p186
I0
I1
tp187
Rp188
(I3
g6
NNNI32
I4
I8
tp189
bg8
(Vb\u0000\u0000\u0000r\u0000\u0000\u0000e\u0000\u0000\u0000n\u0000\u0000\u0000_\u0000\u0000\u0000m\u0000\u0000\u0000o\u0000\u0000\u0000m\u0000\u0000\u0000
p190
g10
tp191
Rp192
tp193
Rp194
ag1
(g2
(VU4
p195
I0
I1
tp196
Rp197
(I3
g6
NNNI16
I4
I8
tp198
bg8
(Vd\u0000\u0000\u0000a\u0000\u0000\u0000v\u0000\u0000\u0000e\u0000\u0000\u0000
p199
g10
tp200
Rp201
tp202
Rp203
ag1
(g2
(VU4
p204
I0
I1
tp205
Rp206
(I3
g6
NNNI16
I4
I8
tp207
bg8
(Vd\u0000\u0000\u0000a\u0000\u0000\u0000v\u0000\u0000\u0000e\u0000\u0000\u0000
p208
g10
tp209
Rp210
tp211
Rp212
ag1
(g2
(VU4
p213
I0
I1
tp214
Rp215
(I3
g6
NNNI16
I4
I8
tp216
bg8
(Vd\u0000\u0000\u0000a\u0000\u0000\u0000v\u0000\u0000\u0000e\u0000\u0000\u0000
p217
g10
tp218
Rp219
tp220
Rp221
ag1
(g2
(VU4
p222
I0
I1
tp223
Rp224
(I3
g6
NNNI16
I4
I8
tp225
bg8
(Vd\u0000\u0000\u0000a\u0000\u0000\u0000v\u0000\u0000\u0000e\u0000\u0000\u0000
p226
g10
tp227
Rp228
tp229
Rp230
ag1
(g2
(VU4
p231
I0
I1
tp232
Rp233
(I3
g6
NNNI16
I4
I8
tp234
bg8
(Vd\u0000\u0000\u0000a\u0000\u0000\u0000v\u0000\u0000\u0000e\u0000\u0000\u0000
p235
g10
tp236
Rp237
tp238
Rp239
ag1
(g2
(VU4
p240
I0
I1
tp241
Rp242
(I3
g6
NNNI16
I4
I8
tp243
bg8
(Vd\u0000\u0000\u0000a\u0000\u0000\u0000v\u0000\u0000\u0000e\u0000\u0000\u0000
p244
g10
tp245
Rp246
tp247
Rp248
ag1
(g2
(VU4
p249
I0
I1
tp250
Rp251
(I3
g6
NNNI16
I4
I8
tp252
bg8
(Vd\u0000\u0000\u0000a\u0000\u0000\u0000v\u0000\u0000\u0000e\u0000\u0000\u0000
p253
g10
tp254
Rp255
tp256
Rp257
ag1
(g2
(VU4
p258
I0
I1
tp259
Rp260
(I3
g6
NNNI16
I4
I8
tp261
bg8
(Vd\u0000\u0000\u0000a\u0000\u0000\u0000v\u0000\u0000\u0000e\u0000\u0000\u0000
p262
g10
tp263
Rp264
tp265
Rp266
ag1
(g2
(VU5
p267
I0
I1
tp268
Rp269
(I3
g6
NNNI20
I4
I8
tp270
bg8
(Vd\u0000\u0000\u0000y\u0000\u0000\u0000l\u0000\u0000\u0000a\u0000\u0000\u0000n\u0000\u0000\u0000
p271
g10
tp272
Rp273
tp274
Rp275
ag1
(g2
(VU5
p276
I0
I1
tp277
Rp278
(I3
g6
NNNI20
I4
I8
tp279
bg8
(Vd\u0000\u0000\u0000y\u0000\u0000\u0000l\u0000\u0000\u0000a\u0000\u0000\u0000n\u0000\u0000\u0000
p280
g10
tp281
Rp282
tp283
Rp284
ag1
(g2
(VU5
p285
I0
I1
tp286
Rp287
(I3
g6
NNNI20
I4
I8
tp288
bg8
(Vd\u0000\u0000\u0000y\u0000\u0000\u0000l\u0000\u0000\u0000a\u0000\u0000\u0000n\u0000\u0000\u0000
p289
g10
tp290
Rp291
tp292
Rp293
ag1
(g2
(VU5
p294
I0
I1
tp295
Rp296
(I3
g6
NNNI20
I4
I8
tp297
bg8
(Vd\u0000\u0000\u0000y\u0000\u0000\u0000l\u0000\u0000\u0000a\u0000\u0000\u0000n\u0000\u0000\u0000
p298
g10
tp299
Rp300
tp301
Rp302
ag1
(g2
(VU5
p303
I0
I1
tp304
Rp305
(I3
g6
NNNI20
I4
I8
tp306
bg8
(Vd\u0000\u0000\u0000y\u0000\u0000\u0000l\u0000\u0000\u0000a\u0000\u0000\u0000n\u0000\u0000\u0000
p307
g10
tp308
Rp309
tp310
Rp311
ag1
(g2
(VU5
p312
I0
I1
tp313
Rp314
(I3
g6
NNNI20
I4
I8
tp315
bg8
(Vd\u0000\u0000\u0000y\u0000\u0000\u0000l\u0000\u0000\u0000a\u0000\u0000\u0000n\u0000\u0000\u0000
p316
g10
tp317
Rp318
tp319
Rp320
ag1
(g2
(VU5
p321
I0
I1
tp322
Rp323
(I3
g6
NNNI20
I4
I8
tp324
bg8
(Vd\u0000\u0000\u0000y\u0000\u0000\u0000l\u0000\u0000\u0000a\u0000\u0000\u0000n\u0000\u0000\u0000
p325
g10
tp326
Rp327
tp328
Rp329
ag1
(g2
(VU5
p330
I0
I1
tp331
Rp332
(I3
g6
NNNI20
I4
I8
tp333
bg8
(Vd\u0000\u0000\u0000y\u0000\u0000\u0000l\u0000\u0000\u0000a\u0000\u0000\u0000n\u0000\u0000\u0000
p334
g10
tp335
Rp336
tp337
Rp338
ag1
(g2
(VU5
p339
I0
I1
tp340
Rp341
(I3
g6
NNNI20
I4
I8
tp342
bg8
(Vd\u0000\u0000\u0000y\u0000\u0000\u0000l\u0000\u0000\u0000a\u0000\u0000\u0000n\u0000\u0000\u0000
p343
g10
tp344
Rp345
tp346
Rp347
ag1
(g2
(VU5
p348
I0
I1
tp349
Rp350
(I3
g6
NNNI20
I4
I8
tp351
bg8
(Vd\u0000\u0000\u0000y\u0000\u0000\u0000l\u0000\u0000\u0000a\u0000\u0000\u0000n\u0000\u0000\u0000
p352
g10
tp353
Rp354
tp355
Rp356
ag1
(g2
(VU5
p357
I0
I1
tp358
Rp359
(I3
g6
NNNI20
I4
I8
tp360
bg8
(Vf\u0000\u0000\u0000a\u0000\u0000\u0000b\u0000\u0000\u0000r\u0000\u0000\u0000i\u0000\u0000\u0000
p361
g10
tp362
Rp363
tp364
Rp365
ag1
(g2
(VU5
p366
I0
I1
tp367
Rp368
(I3
g6
NNNI20
I4
I8
tp369
bg8
(Vf\u0000\u0000\u0000a\u0000\u0000\u0000b\u0000\u0000\u0000r\u0000\u0000\u0000i\u0000\u0000\u0000
p370
g10
tp371
Rp372
tp373
Rp374
ag1
(g2
(VU5
p375
I0
I1
tp376
Rp377
(I3
g6
NNNI20
I4
I8
tp378
bg8
(Vf\u0000\u0000\u0000a\u0000\u0000\u0000b\u0000\u0000\u0000r\u0000\u0000\u0000i\u0000\u0000\u0000
p379
g10
tp380
Rp381
tp382
Rp383
ag1
(g2
(VU5
p384
I0
I1
tp385
Rp386
(I3
g6
NNNI20
I4
I8
tp387
bg8
(Vf\u0000\u0000\u0000a\u0000\u0000\u0000b\u0000\u0000\u0000r\u0000\u0000\u0000i\u0000\u0000\u0000
p388
g10
tp389
Rp390
tp391
Rp392
ag1
(g2
(VU5
p393
I0
I1
tp394
Rp395
(I3
g6
NNNI20
I4
I8
tp396
bg8
(Vf\u0000\u0000\u0000a\u0000\u0000\u0000b\u0000\u0000\u0000r\u0000\u0000\u0000i\u0000\u0000\u0000
p397
g10
tp398
Rp399
tp400
Rp401
ag1
(g2
(VU5
p402
I0
I1
tp403
Rp404
(I3
g6
NNNI20
I4
I8
tp405
bg8
(Vf\u0000\u0000\u0000a\u0000\u0000\u0000b\u0000\u0000\u0000r\u0000\u0000\u0000i\u0000\u0000\u0000
p406
g10
tp407
Rp408
tp409
Rp410
ag1
(g2
(VU5
p411
I0
I1
tp412
Rp413
(I3
g6
NNNI20
I4
I8
tp414
bg8
(Vf\u0000\u0000\u0000a\u0000\u0000\u0000b\u0000\u0000\u0000r\u0000\u0000\u0000i\u0000\u0000\u0000
p415
g10
tp416
Rp417
tp418
Rp419
ag1
(g2
(VU5
p420
I0
I1
tp421
Rp422
(I3
g6
NNNI20
I4
I8
tp423
bg8
(Vf\u0000\u0000\u0000a\u0000\u0000\u0000b\u0000\u0000\u0000r\u0000\u0000\u0000i\u0000\u0000\u0000
p424
g10
tp425
Rp426
tp427
Rp428
ag1
(g2
(VU5
p429
I0
I1
tp430
Rp431
(I3
g6
NNNI20
I4
I8
tp432
bg8
(Vf\u0000\u0000\u0000a\u0000\u0000\u0000b\u0000\u0000\u0000r\u0000\u0000\u0000i\u0000\u0000\u0000
p433
g10
tp434
Rp435
tp436
Rp437
ag1
(g2
(VU5
p438
I0
I1
tp439
Rp440
(I3
g6
NNNI20
I4
I8
tp441
bg8
(Vf\u0000\u0000\u0000a\u0000\u0000\u0000b\u0000\u0000\u0000r\u0000\u0000\u0000i\u0000\u0000\u0000
p442
g10
tp443
Rp444
tp445
Rp446
ag1
(g2
(VU5
p447
I0
I1
tp448
Rp449
(I3
g6
NNNI20
I4
I8
tp450
bg8
(Vf\u0000\u0000\u0000a\u0000\u0000\u0000b\u0000\u0000\u0000r\u0000\u0000\u0000i\u0000\u0000\u0000
p451
g10
tp452
Rp453
tp454
Rp455
ag1
(g2
(VU9
p456
I0
I1
tp457
Rp458
(I3
g6
NNNI36
I4
I8
tp459
bg8
(Vf\u0000\u0000\u0000a\u0000\u0000\u0000b\u0000\u0000\u0000r\u0000\u0000\u0000i\u0000\u0000\u0000_\u0000\u0000\u0000d\u0000\u0000\u0000a\u0000\u0000\u0000d\u0000\u0000\u0000
p460
g10
tp461
Rp462
tp463
Rp464
ag1
(g2
(VU9
p465
I0
I1
tp466
Rp467
(I3
g6
NNNI36
I4
I8
tp468
bg8
(Vf\u0000\u0000\u0000a\u0000\u0000\u0000b\u0000\u0000\u0000r\u0000\u0000\u0000i\u0000\u0000\u0000_\u0000\u0000\u0000d\u0000\u0000\u0000a\u0000\u0000\u0000d\u0000\u0000\u0000
p469
g10
tp470
Rp471
tp472
Rp473
ag1
(g2
(VU9
p474
I0
I1
tp475
Rp476
(I3
g6
NNNI36
I4
I8
tp477
bg8
(Vf\u0000\u0000\u0000a\u0000\u0000\u0000b\u0000\u0000\u0000r\u0000\u0000\u0000i\u0000\u0000\u0000_\u0000\u0000\u0000d\u0000\u0000\u0000a\u0000\u0000\u0000d\u0000\u0000\u0000
p478
g10
tp479
Rp480
tp481
Rp482
ag1
(g2
(VU9
p483
I0
I1
tp484
Rp485
(I3
g6
NNNI36
I4
I8
tp486
bg8
(Vf\u0000\u0000\u0000a\u0000\u0000\u0000b\u0000\u0000\u0000r\u0000\u0000\u0000i\u0000\u0000\u0000_\u0000\u0000\u0000d\u0000\u0000\u0000a\u0000\u0000\u0000d\u0000\u0000\u0000
p487
g10
tp488
Rp489
tp490
Rp491
ag1
(g2
(VU9
p492
I0
I1
tp493
Rp494
(I3
g6
NNNI36
I4
I8
tp495
bg8
(Vf\u0000\u0000\u0000a\u0000\u0000\u0000b\u0000\u0000\u0000r\u0000\u0000\u0000i\u0000\u0000\u0000_\u0000\u0000\u0000d\u0000\u0000\u0000a\u0000\u0000\u0000d\u0000\u0000\u0000
p496
g10
tp497
Rp498
tp499
Rp500
ag1
(g2
(VU9
p501
I0
I1
tp502
Rp503
(I3
g6
NNNI36
I4
I8
tp504
bg8
(Vf\u0000\u0000\u0000a\u0000\u0000\u0000b\u0000\u0000\u0000r\u0000\u0000\u0000i\u0000\u0000\u0000_\u0000\u0000\u0000d\u0000\u0000\u0000a\u0000\u0000\u0000d\u0000\u0000\u0000
p505
g10
tp506
Rp507
tp508
Rp509
ag1
(g2
(VU9
p510
I0
I1
tp511
Rp512
(I3
g6
NNNI36
I4
I8
tp513
bg8
(Vf\u0000\u0000\u0000a\u0000\u0000\u0000b\u0000\u0000\u0000r\u0000\u0000\u0000i\u0000\u0000\u0000_\u0000\u0000\u0000d\u0000\u0000\u0000a\u0000\u0000\u0000d\u0000\u0000\u0000
p514
g10
tp515
Rp516
tp517
Rp518
ag1
(g2
(VU9
p519
I0
I1
tp520
Rp521
(I3
g6
NNNI36
I4
I8
tp522
bg8
(Vf\u0000\u0000\u0000a\u0000\u0000\u0000b\u0000\u0000\u0000r\u0000\u0000\u0000i\u0000\u0000\u0000_\u0000\u0000\u0000d\u0000\u0000\u0000a\u0000\u0000\u0000d\u0000\u0000\u0000
p523
g10
tp524
Rp525
tp526
Rp527
ag1
(g2
(VU9
p528
I0
I1
tp529
Rp530
(I3
g6
NNNI36
I4
I8
tp531
bg8
(Vf\u0000\u0000\u0000a\u0000\u0000\u0000b\u0000\u0000\u0000r\u0000\u0000\u0000i\u0000\u0000\u0000_\u0000\u0000\u0000d\u0000\u0000\u0000a\u0000\u0000\u0000d\u0000\u0000\u0000
p532
g10
tp533
Rp534
tp535
Rp536
ag1
(g2
(VU9
p537
I0
I1
tp538
Rp539
(I3
g6
NNNI36
I4
I8
tp540
bg8
(Vf\u0000\u0000\u0000a\u0000\u0000\u0000b\u0000\u0000\u0000r\u0000\u0000\u0000i\u0000\u0000\u0000_\u0000\u0000\u0000m\u0000\u0000\u0000o\u0000\u0000\u0000m\u0000\u0000\u0000
p541
g10
tp542
Rp543
tp544
Rp545
ag1
(g2
(VU9
p546
I0
I1
tp547
Rp548
(I3
g6
NNNI36
I4
I8
tp549
bg8
(Vf\u0000\u0000\u0000a\u0000\u0000\u0000b\u0000\u0000\u0000r\u0000\u0000\u0000i\u0000\u0000\u0000_\u0000\u0000\u0000m\u0000\u0000\u0000o\u0000\u0000\u0000m\u0000\u0000\u0000
p550
g10
tp551
Rp552
tp553
Rp554
ag1
(g2
(VU9
p555
I0
I1
tp556
Rp557
(I3
g6
NNNI36
I4
I8
tp558
bg8
(Vf\u0000\u0000\u0000a\u0000\u0000\u0000b\u0000\u0000\u0000r\u0000\u0000\u0000i\u0000\u0000\u0000_\u0000\u0000\u0000m\u0000\u0000\u0000o\u0000\u0000\u0000m\u0000\u0000\u0000
p559
g10
tp560
Rp561
tp562
Rp563
ag1
(g2
(VU9
p564
I0
I1
tp565
Rp566
(I3
g6
NNNI36
I4
I8
tp567
bg8
(Vf\u0000\u0000\u0000a\u0000\u0000\u0000b\u0000\u0000\u0000r\u0000\u0000\u0000i\u0000\u0000\u0000_\u0000\u0000\u0000m\u0000\u0000\u0000o\u0000\u0000\u0000m\u0000\u0000\u0000
p568
g10
tp569
Rp570
tp571
Rp572
ag1
(g2
(VU9
p573
I0
I1
tp574
Rp575
(I3
g6
NNNI36
I4
I8
tp576
bg8
(Vf\u0000\u0000\u0000a\u0000\u0000\u0000b\u0000\u0000\u0000r\u0000\u0000\u0000i\u0000\u0000\u0000_\u0000\u0000\u0000m\u0000\u0000\u0000o\u0000\u0000\u0000m\u0000\u0000\u0000
p577
g10
tp578
Rp579
tp580
Rp581
ag1
(g2
(VU9
p582
I0
I1
tp583
Rp584
(I3
g6
NNNI36
I4
I8
tp585
bg8
(Vf\u0000\u0000\u0000a\u0000\u0000\u0000b\u0000\u0000\u0000r\u0000\u0000\u0000i\u0000\u0000\u0000_\u0000\u0000\u0000m\u0000\u0000\u0000o\u0000\u0000\u0000m\u0000\u0000\u0000
p586
g10
tp587
Rp588
tp589
Rp590
ag1
(g2
(VU9
p591
I0
I1
tp592
Rp593
(I3
g6
NNNI36
I4
I8
tp594
bg8
(Vf\u0000\u0000\u0000a\u0000\u0000\u0000b\u0000\u0000\u0000r\u0000\u0000\u0000i\u0000\u0000\u0000_\u0000\u0000\u0000m\u0000\u0000\u0000o\u0000\u0000\u0000m\u0000\u0000\u0000
p595
g10
tp596
Rp597
tp598
Rp599
ag1
(g2
(VU9
p600
I0
I1
tp601
Rp602
(I3
g6
NNNI36
I4
I8
tp603
bg8
(Vf\u0000\u0000\u0000a\u0000\u0000\u0000b\u0000\u0000\u0000r\u0000\u0000\u0000i\u0000\u0000\u0000_\u0000\u0000\u0000m\u0000\u0000\u0000o\u0000\u0000\u0000m\u0000\u0000\u0000
p604
g10
tp605
Rp606
tp607
Rp608
ag1
(g2
(VU9
p609
I0
I1
tp610
Rp611
(I3
g6
NNNI36
I4
I8
tp612
bg8
(Vf\u0000\u0000\u0000a\u0000\u0000\u0000b\u0000\u0000\u0000r\u0000\u0000\u0000i\u0000\u0000\u0000_\u0000\u0000\u0000m\u0000\u0000\u0000o\u0000\u0000\u0000m\u0000\u0000\u0000
p613
g10
tp614
Rp615
tp616
Rp617
ag1
(g2
(VU9
p618
I0
I1
tp619
Rp620
(I3
g6
NNNI36
I4
I8
tp621
bg8
(Vf\u0000\u0000\u0000a\u0000\u0000\u0000b\u0000\u0000\u0000r\u0000\u0000\u0000i\u0000\u0000\u0000_\u0000\u0000\u0000m\u0000\u0000\u0000o\u0000\u0000\u0000m\u0000\u0000\u0000
p622
g10
tp623
Rp624
tp625
Rp626
ag1
(g2
(VU3
p627
I0
I1
tp628
Rp629
(I3
g6
NNNI12
I4
I8
tp630
bg8
(Vi\u0000\u0000\u0000a\u0000\u0000\u0000n\u0000\u0000\u0000
p631
g10
tp632
Rp633
tp634
Rp635
ag1
(g2
(VU3
p636
I0
I1
tp637
Rp638
(I3
g6
NNNI12
I4
I8
tp639
bg8
(Vi\u0000\u0000\u0000a\u0000\u0000\u0000n\u0000\u0000\u0000
p640
g10
tp641
Rp642
tp643
Rp644
ag1
(g2
(VU3
p645
I0
I1
tp646
Rp647
(I3
g6
NNNI12
I4
I8
tp648
bg8
(Vi\u0000\u0000\u0000a\u0000\u0000\u0000n\u0000\u0000\u0000
p649
g10
tp650
Rp651
tp652
Rp653
ag1
(g2
(VU3
p654
I0
I1
tp655
Rp656
(I3
g6
NNNI12
I4
I8
tp657
bg8
(Vi\u0000\u0000\u0000a\u0000\u0000\u0000n\u0000\u0000\u0000
p658
g10
tp659
Rp660
tp661
Rp662
ag1
(g2
(VU3
p663
I0
I1
tp664
Rp665
(I3
g6
NNNI12
I4
I8
tp666
bg8
(Vi\u0000\u0000\u0000a\u0000\u0000\u0000n\u0000\u0000\u0000
p667
g10
tp668
Rp669
tp670
Rp671
ag1
(g2
(VU16
p672
I0
I1
tp673
Rp674
(I3
g6
NNNI64
I4
I8
tp675
bg8
(Vj\u0000\u0000\u0000u\u0000\u0000\u0000a\u0000\u0000\u0000n\u0000\u0000\u0000_\u0000\u0000\u0000a\u0000\u0000\u0000m\u0000\u0000\u0000i\u0000\u0000\u0000g\u0000\u0000\u0000o\u0000\u0000\u0000_\u0000\u0000\u0000f\u0000\u0000\u0000a\u0000\u0000\u0000b\u0000\u0000\u0000r\u0000\u0000\u0000o\u0000\u0000\u0000
p676
g10
tp677
Rp678
tp679
Rp680
ag1
(g2
(VU16
p681
I0
I1
tp682
Rp683
(I3
g6
NNNI64
I4
I8
tp684
bg8
(Vj\u0000\u0000\u0000u\u0000\u0000\u0000a\u0000\u0000\u0000n\u0000\u0000\u0000_\u0000\u0000\u0000a\u0000\u0000\u0000m\u0000\u0000\u0000i\u0000\u0000\u0000g\u0000\u0000\u0000o\u0000\u0000\u0000_\u0000\u0000\u0000f\u0000\u0000\u0000a\u0000\u0000\u0000b\u0000\u0000\u0000r\u0000\u0000\u0000o\u0000\u0000\u0000
p685
g10
tp686
Rp687
tp688
Rp689
ag1
(g2
(VU16
p690
I0
I1
tp691
Rp692
(I3
g6
NNNI64
I4
I8
tp693
bg8
(Vj\u0000\u0000\u0000u\u0000\u0000\u0000a\u0000\u0000\u0000n\u0000\u0000\u0000_\u0000\u0000\u0000a\u0000\u0000\u0000m\u0000\u0000\u0000i\u0000\u0000\u0000g\u0000\u0000\u0000o\u0000\u0000\u0000_\u0000\u0000\u0000f\u0000\u0000\u0000a\u0000\u0000\u0000b\u0000\u0000\u0000r\u0000\u0000\u0000o\u0000\u0000\u0000
p694
g10
tp695
Rp696
tp697
Rp698
ag1
(g2
(VU16
p699
I0
I1
tp700
Rp701
(I3
g6
NNNI64
I4
I8
tp702
bg8
(Vj\u0000\u0000\u0000u\u0000\u0000\u0000a\u0000\u0000\u0000n\u0000\u0000\u0000_\u0000\u0000\u0000a\u0000\u0000\u0000m\u0000\u0000\u0000i\u0000\u0000\u0000g\u0000\u0000\u0000o\u0000\u0000\u0000_\u0000\u0000\u0000f\u0000\u0000\u0000a\u0000\u0000\u0000b\u0000\u0000\u0000r\u0000\u0000\u0000o\u0000\u0000\u0000
p703
g10
tp704
Rp705
tp706
Rp707
ag1
(g2
(VU16
p708
I0
I1
tp709
Rp710
(I3
g6
NNNI64
I4
I8
tp711
bg8
(Vj\u0000\u0000\u0000u\u0000\u0000\u0000a\u0000\u0000\u0000n\u0000\u0000\u0000_\u0000\u0000\u0000a\u0000\u0000\u0000m\u0000\u0000\u0000i\u0000\u0000\u0000g\u0000\u0000\u0000o\u0000\u0000\u0000_\u0000\u0000\u0000f\u0000\u0000\u0000a\u0000\u0000\u0000b\u0000\u0000\u0000r\u0000\u0000\u0000o\u0000\u0000\u0000
p712
g10
tp713
Rp714
tp715
Rp716
ag1
(g2
(VU16
p717
I0
I1
tp718
Rp719
(I3
g6
NNNI64
I4
I8
tp720
bg8
(Vj\u0000\u0000\u0000u\u0000\u0000\u0000a\u0000\u0000\u0000n\u0000\u0000\u0000_\u0000\u0000\u0000a\u0000\u0000\u0000m\u0000\u0000\u0000i\u0000\u0000\u0000g\u0000\u0000\u0000o\u0000\u0000\u0000_\u0000\u0000\u0000f\u0000\u0000\u0000a\u0000\u0000\u0000b\u0000\u0000\u0000r\u0000\u0000\u0000o\u0000\u0000\u0000
p721
g10
tp722
Rp723
tp724
Rp725
ag1
(g2
(VU16
p726
I0
I1
tp727
Rp728
(I3
g6
NNNI64
I4
I8
tp729
bg8
(Vj\u0000\u0000\u0000u\u0000\u0000\u0000a\u0000\u0000\u0000n\u0000\u0000\u0000_\u0000\u0000\u0000a\u0000\u0000\u0000m\u0000\u0000\u0000i\u0000\u0000\u0000g\u0000\u0000\u0000o\u0000\u0000\u0000_\u0000\u0000\u0000f\u0000\u0000\u0000a\u0000\u0000\u0000b\u0000\u0000\u0000r\u0000\u0000\u0000o\u0000\u0000\u0000
p730
g10
tp731
Rp732
tp733
Rp734
ag1
(g2
(VU16
p735
I0
I1
tp736
Rp737
(I3
g6
NNNI64
I4
I8
tp738
bg8
(Vj\u0000\u0000\u0000u\u0000\u0000\u0000a\u0000\u0000\u0000n\u0000\u0000\u0000_\u0000\u0000\u0000a\u0000\u0000\u0000m\u0000\u0000\u0000i\u0000\u0000\u0000g\u0000\u0000\u0000o\u0000\u0000\u0000_\u0000\u0000\u0000f\u0000\u0000\u0000a\u0000\u0000\u0000b\u0000\u0000\u0000r\u0000\u0000\u0000o\u0000\u0000\u0000
p739
g10
tp740
Rp741
tp742
Rp743
ag1
(g2
(VU4
p744
I0
I1
tp745
Rp746
(I3
g6
NNNI16
I4
I8
tp747
bg8
(VT\u0000\u0000\u0000a\u0000\u0000\u0000t\u0000\u0000\u0000i\u0000\u0000\u0000
p748
g10
tp749
Rp750
tp751
Rp752
ag1
(g2
(VU4
p753
I0
I1
tp754
Rp755
(I3
g6
NNNI16
I4
I8
tp756
bg8
(VT\u0000\u0000\u0000a\u0000\u0000\u0000t\u0000\u0000\u0000i\u0000\u0000\u0000
p757
g10
tp758
Rp759
tp760
Rp761
ag1
(g2
(VU4
p762
I0
I1
tp763
Rp764
(I3
g6
NNNI16
I4
I8
tp765
bg8
(VT\u0000\u0000\u0000a\u0000\u0000\u0000t\u0000\u0000\u0000i\u0000\u0000\u0000
p766
g10
tp767
Rp768
tp769
Rp770
ag1
(g2
(VU4
p771
I0
I1
tp772
Rp773
(I3
g6
NNNI16
I4
I8
tp774
bg8
(VT\u0000\u0000\u0000a\u0000\u0000\u0000t\u0000\u0000\u0000i\u0000\u0000\u0000
p775
g10
tp776
Rp777
tp778
Rp779
ag1
(g2
(VU4
p780
I0
I1
tp781
Rp782
(I3
g6
NNNI16
I4
I8
tp783
bg8
(VT\u0000\u0000\u0000a\u0000\u0000\u0000t\u0000\u0000\u0000i\u0000\u0000\u0000
p784
g10
tp785
Rp786
tp787
Rp788
ag1
(g2
(VU4
p789
I0
I1
tp790
Rp791
(I3
g6
NNNI16
I4
I8
tp792
bg8
(VT\u0000\u0000\u0000a\u0000\u0000\u0000t\u0000\u0000\u0000i\u0000\u0000\u0000
p793
g10
tp794
Rp795
tp796
Rp797
ag1
(g2
(VU4
p798
I0
I1
tp799
Rp800
(I3
g6
NNNI16
I4
I8
tp801
bg8
(VT\u0000\u0000\u0000a\u0000\u0000\u0000t\u0000\u0000\u0000i\u0000\u0000\u0000
p802
g10
tp803
Rp804
tp805
Rp806
ag1
(g2
(VU4
p807
I0
I1
tp808
Rp809
(I3
g6
NNNI16
I4
I8
tp810
bg8
(VT\u0000\u0000\u0000a\u0000\u0000\u0000t\u0000\u0000\u0000i\u0000\u0000\u0000
p811
g10
tp812
Rp813
tp814
Rp815
ag1
(g2
(VU4
p816
I0
I1
tp817
Rp818
(I3
g6
NNNI16
I4
I8
tp819
bg8
(VT\u0000\u0000\u0000a\u0000\u0000\u0000t\u0000\u0000\u0000i\u0000\u0000\u0000
p820
g10
tp821
Rp822
tp823
Rp824
ag1
(g2
(VU4
p825
I0
I1
tp826
Rp827
(I3
g6
NNNI16
I4
I8
tp828
bg8
(VT\u0000\u0000\u0000a\u0000\u0000\u0000t\u0000\u0000\u0000i\u0000\u0000\u0000
p829
g10
tp830
Rp831
tp832
Rp833
ag1
(g2
(VU4
p834
I0
I1
tp835
Rp836
(I3
g6
NNNI16
I4
I8
tp837
bg8
(VT\u0000\u0000\u0000a\u0000\u0000\u0000t\u0000\u0000\u0000i\u0000\u0000\u0000
p838
g10
tp839
Rp840
tp841
Rp842
ag1
(g2
(VU4
p843
I0
I1
tp844
Rp845
(I3
g6
NNNI16
I4
I8
tp846
bg8
(VT\u0000\u0000\u0000a\u0000\u0000\u0000t\u0000\u0000\u0000i\u0000\u0000\u0000
p847
g10
tp848
Rp849
tp850
Rp851
ag1
(g2
(VU4
p852
I0
I1
tp853
Rp854
(I3
g6
NNNI16
I4
I8
tp855
bg8
(VT\u0000\u0000\u0000a\u0000\u0000\u0000t\u0000\u0000\u0000i\u0000\u0000\u0000
p856
g10
tp857
Rp858
tp859
Rp860
ag1
(g2
(VU9
p861
I0
I1
tp862
Rp863
(I3
g6
NNNI36
I4
I8
tp864
bg8
(Vt\u0000\u0000\u0000i\u0000\u0000\u0000e\u0000\u0000\u0000v\u0000\u0000\u0000o\u0000\u0000\u0000_\u0000\u0000\u0000d\u0000\u0000\u0000a\u0000\u0000\u0000d\u0000\u0000\u0000
p865
g10
tp866
Rp867
tp868
Rp869
ag1
(g2
(VU9
p870
I0
I1
tp871
Rp872
(I3
g6
NNNI36
I4
I8
tp873
bg8
(Vt\u0000\u0000\u0000i\u0000\u0000\u0000e\u0000\u0000\u0000v\u0000\u0000\u0000o\u0000\u0000\u0000_\u0000\u0000\u0000d\u0000\u0000\u0000a\u0000\u0000\u0000d\u0000\u0000\u0000
p874
g10
tp875
Rp876
tp877
Rp878
ag1
(g2
(VU9
p879
I0
I1
tp880
Rp881
(I3
g6
NNNI36
I4
I8
tp882
bg8
(Vt\u0000\u0000\u0000i\u0000\u0000\u0000e\u0000\u0000\u0000v\u0000\u0000\u0000o\u0000\u0000\u0000_\u0000\u0000\u0000d\u0000\u0000\u0000a\u0000\u0000\u0000d\u0000\u0000\u0000
p883
g10
tp884
Rp885
tp886
Rp887
ag1
(g2
(VU9
p888
I0
I1
tp889
Rp890
(I3
g6
NNNI36
I4
I8
tp891
bg8
(Vt\u0000\u0000\u0000i\u0000\u0000\u0000e\u0000\u0000\u0000v\u0000\u0000\u0000o\u0000\u0000\u0000_\u0000\u0000\u0000d\u0000\u0000\u0000a\u0000\u0000\u0000d\u0000\u0000\u0000
p892
g10
tp893
Rp894
tp895
Rp896
ag1
(g2
(VU9
p897
I0
I1
tp898
Rp899
(I3
g6
NNNI36
I4
I8
tp900
bg8
(Vt\u0000\u0000\u0000i\u0000\u0000\u0000e\u0000\u0000\u0000v\u0000\u0000\u0000o\u0000\u0000\u0000_\u0000\u0000\u0000d\u0000\u0000\u0000a\u0000\u0000\u0000d\u0000\u0000\u0000
p901
g10
tp902
Rp903
tp904
Rp905
ag1
(g2
(VU9
p906
I0
I1
tp907
Rp908
(I3
g6
NNNI36
I4
I8
tp909
bg8
(Vt\u0000\u0000\u0000i\u0000\u0000\u0000e\u0000\u0000\u0000v\u0000\u0000\u0000o\u0000\u0000\u0000_\u0000\u0000\u0000d\u0000\u0000\u0000a\u0000\u0000\u0000d\u0000\u0000\u0000
p910
g10
tp911
Rp912
tp913
Rp914
ag1
(g2
(VU9
p915
I0
I1
tp916
Rp917
(I3
g6
NNNI36
I4
I8
tp918
bg8
(Vt\u0000\u0000\u0000i\u0000\u0000\u0000e\u0000\u0000\u0000v\u0000\u0000\u0000o\u0000\u0000\u0000_\u0000\u0000\u0000d\u0000\u0000\u0000a\u0000\u0000\u0000d\u0000\u0000\u0000
p919
g10
tp920
Rp921
tp922
Rp923
ag1
(g2
(VU9
p924
I0
I1
tp925
Rp926
(I3
g6
NNNI36
I4
I8
tp927
bg8
(Vt\u0000\u0000\u0000i\u0000\u0000\u0000e\u0000\u0000\u0000v\u0000\u0000\u0000o\u0000\u0000\u0000_\u0000\u0000\u0000d\u0000\u0000\u0000a\u0000\u0000\u0000d\u0000\u0000\u0000
p928
g10
tp929
Rp930
tp931
Rp932
ag1
(g2
(VU9
p933
I0
I1
tp934
Rp935
(I3
g6
NNNI36
I4
I8
tp936
bg8
(Vt\u0000\u0000\u0000i\u0000\u0000\u0000e\u0000\u0000\u0000v\u0000\u0000\u0000o\u0000\u0000\u0000_\u0000\u0000\u0000d\u0000\u0000\u0000a\u0000\u0000\u0000d\u0000\u0000\u0000
p937
g10
tp938
Rp939
tp940
Rp941
ag1
(g2
(VU9
p942
I0
I1
tp943
Rp944
(I3
g6
NNNI36
I4
I8
tp945
bg8
(Vt\u0000\u0000\u0000i\u0000\u0000\u0000e\u0000\u0000\u0000v\u0000\u0000\u0000o\u0000\u0000\u0000_\u0000\u0000\u0000d\u0000\u0000\u0000a\u0000\u0000\u0000d\u0000\u0000\u0000
p946
g10
tp947
Rp948
tp949
Rp950
ag1
(g2
(VU9
p951
I0
I1
tp952
Rp953
(I3
g6
NNNI36
I4
I8
tp954
bg8
(Vt\u0000\u0000\u0000i\u0000\u0000\u0000e\u0000\u0000\u0000v\u0000\u0000\u0000o\u0000\u0000\u0000_\u0000\u0000\u0000d\u0000\u0000\u0000a\u0000\u0000\u0000d\u0000\u0000\u0000
p955
g10
tp956
Rp957
tp958
Rp959
ag1
(g2
(VU9
p960
I0
I1
tp961
Rp962
(I3
g6
NNNI36
I4
I8
tp963
bg8
(Vt\u0000\u0000\u0000i\u0000\u0000\u0000e\u0000\u0000\u0000v\u0000\u0000\u0000o\u0000\u0000\u0000_\u0000\u0000\u0000d\u0000\u0000\u0000a\u0000\u0000\u0000d\u0000\u0000\u0000
p964
g10
tp965
Rp966
tp967
Rp968
ag1
(g2
(VU9
p969
I0
I1
tp970
Rp971
(I3
g6
NNNI36
I4
I8
tp972
bg8
(Vt\u0000\u0000\u0000i\u0000\u0000\u0000e\u0000\u0000\u0000v\u0000\u0000\u0000o\u0000\u0000\u0000_\u0000\u0000\u0000m\u0000\u0000\u0000o\u0000\u0000\u0000m\u0000\u0000\u0000
p973
g10
tp974
Rp975
tp976
Rp977
ag1
(g2
(VU9
p978
I0
I1
tp979
Rp980
(I3
g6
NNNI36
I4
I8
tp981
bg8
(Vt\u0000\u0000\u0000i\u0000\u0000\u0000e\u0000\u0000\u0000v\u0000\u0000\u0000o\u0000\u0000\u0000_\u0000\u0000\u0000m\u0000\u0000\u0000o\u0000\u0000\u0000m\u0000\u0000\u0000
p982
g10
tp983
Rp984
tp985
Rp986
ag1
(g2
(VU9
p987
I0
I1
tp988
Rp989
(I3
g6
NNNI36
I4
I8
tp990
bg8
(Vt\u0000\u0000\u0000i\u0000\u0000\u0000e\u0000\u0000\u0000v\u0000\u0000\u0000o\u0000\u0000\u0000_\u0000\u0000\u0000m\u0000\u0000\u0000o\u0000\u0000\u0000m\u0000\u0000\u0000
p991
g10
tp992
Rp993
tp994
Rp995
ag1
(g2
(VU9
p996
I0
I1
tp997
Rp998
(I3
g6
NNNI36
I4
I8
tp999
bg8
(Vt\u0000\u0000\u0000i\u0000\u0000\u0000e\u0000\u0000\u0000v\u0000\u0000\u0000o\u0000\u0000\u0000_\u0000\u0000\u0000m\u0000\u0000\u0000o\u0000\u0000\u0000m\u0000\u0000\u0000
p1000
g10
tp1001
Rp1002
tp1003
Rp1004
ag1
(g2
(VU9
p1005
I0
I1
tp1006
Rp1007
(I3
g6
NNNI36
I4
I8
tp1008
bg8
(Vt\u0000\u0000\u0000i\u0000\u0000\u0000e\u0000\u0000\u0000v\u0000\u0000\u0000o\u0000\u0000\u0000_\u0000\u0000\u0000m\u0000\u0000\u0000o\u0000\u0000\u0000m\u0000\u0000\u0000
p1009
g10
tp1010
Rp1011
tp1012
Rp1013
ag1
(g2
(VU9
p1014
I0
I1
tp1015
Rp1016
(I3
g6
NNNI36
I4
I8
tp1017
bg8
(Vt\u0000\u0000\u0000i\u0000\u0000\u0000e\u0000\u0000\u0000v\u0000\u0000\u0000o\u0000\u0000\u0000_\u0000\u0000\u0000m\u0000\u0000\u0000o\u0000\u0000\u0000m\u0000\u0000\u0000
p1018
g10
tp1019
Rp1020
tp1021
Rp1022
ag1
(g2
(VU9
p1023
I0
I1
tp1024
Rp1025
(I3
g6
NNNI36
I4
I8
tp1026
bg8
(Vt\u0000\u0000\u0000i\u0000\u0000\u0000e\u0000\u0000\u0000v\u0000\u0000\u0000o\u0000\u0000\u0000_\u0000\u0000\u0000m\u0000\u0000\u0000o\u0000\u0000\u0000m\u0000\u0000\u0000
p1027
g10
tp1028
Rp1029
tp1030
Rp1031
ag1
(g2
(VU9
p1032
I0
I1
tp1033
Rp1034
(I3
g6
NNNI36
I4
I8
tp1035
bg8
(Vt\u0000\u0000\u0000i\u0000\u0000\u0000e\u0000\u0000\u0000v\u0000\u0000\u0000o\u0000\u0000\u0000_\u0000\u0000\u0000m\u0000\u0000\u0000o\u0000\u0000\u0000m\u0000\u0000\u0000
p1036
g10
tp1037
Rp1038
tp1039
Rp1040
ag1
(g2
(VU9
p1041
I0
I1
tp1042
Rp1043
(I3
g6
NNNI36
I4
I8
tp1044
bg8
(Vt\u0000\u0000\u0000i\u0000\u0000\u0000e\u0000\u0000\u0000v\u0000\u0000\u0000o\u0000\u0000\u0000_\u0000\u0000\u0000m\u0000\u0000\u0000o\u0000\u0000\u0000m\u0000\u0000\u0000
p1045
g10
tp1046
Rp1047
tp1048
Rp1049
ag1
(g2
(VU9
p1050
I0
I1
tp1051
Rp1052
(I3
g6
NNNI36
I4
I8
tp1053
bg8
(Vt\u0000\u0000\u0000i\u0000\u0000\u0000e\u0000\u0000\u0000v\u0000\u0000\u0000o\u0000\u0000\u0000_\u0000\u0000\u0000m\u0000\u0000\u0000o\u0000\u0000\u0000m\u0000\u0000\u0000
p1054
g10
tp1055
Rp1056
tp1057
Rp1058
ag1
(g2
(VU9
p1059
I0
I1
tp1060
Rp1061
(I3
g6
NNNI36
I4
I8
tp1062
bg8
(Vt\u0000\u0000\u0000i\u0000\u0000\u0000e\u0000\u0000\u0000v\u0000\u0000\u0000o\u0000\u0000\u0000_\u0000\u0000\u0000s\u0000\u0000\u0000i\u0000\u0000\u0000s\u0000\u0000\u0000
p1063
g10
tp1064
Rp1065
tp1066
Rp1067
ag1
(g2
(VU9
p1068
I0
I1
tp1069
Rp1070
(I3
g6
NNNI36
I4
I8
tp1071
bg8
(Vt\u0000\u0000\u0000i\u0000\u0000\u0000e\u0000\u0000\u0000v\u0000\u0000\u0000o\u0000\u0000\u0000_\u0000\u0000\u0000s\u0000\u0000\u0000i\u0000\u0000\u0000s\u0000\u0000\u0000
p1072
g10
tp1073
Rp1074
tp1075
Rp1076
ag1
(g2
(VU9
p1077
I0
I1
tp1078
Rp1079
(I3
g6
NNNI36
I4
I8
tp1080
bg8
(Vt\u0000\u0000\u0000i\u0000\u0000\u0000e\u0000\u0000\u0000v\u0000\u0000\u0000o\u0000\u0000\u0000_\u0000\u0000\u0000s\u0000\u0000\u0000i\u0000\u0000\u0000s\u0000\u0000\u0000
p1081
g10
tp1082
Rp1083
tp1084
Rp1085
ag1
(g2
(VU9
p1086
I0
I1
tp1087
Rp1088
(I3
g6
NNNI36
I4
I8
tp1089
bg8
(Vt\u0000\u0000\u0000i\u0000\u0000\u0000e\u0000\u0000\u0000v\u0000\u0000\u0000o\u0000\u0000\u0000_\u0000\u0000\u0000s\u0000\u0000\u0000i\u0000\u0000\u0000s\u0000\u0000\u0000
p1090
g10
tp1091
Rp1092
tp1093
Rp1094
ag1
(g2
(VU9
p1095
I0
I1
tp1096
Rp1097
(I3
g6
NNNI36
I4
I8
tp1098
bg8
(Vt\u0000\u0000\u0000i\u0000\u0000\u0000e\u0000\u0000\u0000v\u0000\u0000\u0000o\u0000\u0000\u0000_\u0000\u0000\u0000s\u0000\u0000\u0000i\u0000\u0000\u0000s\u0000\u0000\u0000
p1099
g10
tp1100
Rp1101
tp1102
Rp1103
ag1
(g2
(VU9
p1104
I0
I1
tp1105
Rp1106
(I3
g6
NNNI36
I4
I8
tp1107
bg8
(Vt\u0000\u0000\u0000i\u0000\u0000\u0000e\u0000\u0000\u0000v\u0000\u0000\u0000o\u0000\u0000\u0000_\u0000\u0000\u0000s\u0000\u0000\u0000i\u0000\u0000\u0000s\u0000\u0000\u0000
p1108
g10
tp1109
Rp1110
tp1111
Rp1112
ag1
(g2
(VU9
p1113
I0
I1
tp1114
Rp1115
(I3
g6
NNNI36
I4
I8
tp1116
bg8
(Vt\u0000\u0000\u0000i\u0000\u0000\u0000e\u0000\u0000\u0000v\u0000\u0000\u0000o\u0000\u0000\u0000_\u0000\u0000\u0000s\u0000\u0000\u0000i\u0000\u0000\u0000s\u0000\u0000\u0000
p1117
g10
tp1118
Rp1119
tp1120
Rp1121
ag1
(g2
(VU9
p1122
I0
I1
tp1123
Rp1124
(I3
g6
NNNI36
I4
I8
tp1125
bg8
(Vt\u0000\u0000\u0000i\u0000\u0000\u0000e\u0000\u0000\u0000v\u0000\u0000\u0000o\u0000\u0000\u0000_\u0000\u0000\u0000s\u0000\u0000\u0000i\u0000\u0000\u0000s\u0000\u0000\u0000
p1126
g10
tp1127
Rp1128
tp1129
Rp1130
ag1
(g2
(VU9
p1131
I0
I1
tp1132
Rp1133
(I3
g6
NNNI36
I4
I8
tp1134
bg8
(Vt\u0000\u0000\u0000i\u0000\u0000\u0000e\u0000\u0000\u0000v\u0000\u0000\u0000o\u0000\u0000\u0000_\u0000\u0000\u0000s\u0000\u0000\u0000i\u0000\u0000\u0000s\u0000\u0000\u0000
p1135
g10
tp1136
Rp1137
tp1138
Rp1139
ag1
(g2
(VU9
p1140
I0
I1
tp1141
Rp1142
(I3
g6
NNNI36
I4
I8
tp1143
bg8
(Vt\u0000\u0000\u0000i\u0000\u0000\u0000e\u0000\u0000\u0000v\u0000\u0000\u0000o\u0000\u0000\u0000_\u0000\u0000\u0000s\u0000\u0000\u0000i\u0000\u0000\u0000s\u0000\u0000\u0000
p1144
g10
tp1145
Rp1146
tp1147
Rp1148
ag1
(g2
(VU9
p1149
I0
I1
tp1150
Rp1151
(I3
g6
NNNI36
I4
I8
tp1152
bg8
(Vt\u0000\u0000\u0000i\u0000\u0000\u0000e\u0000\u0000\u0000v\u0000\u0000\u0000o\u0000\u0000\u0000_\u0000\u0000\u0000s\u0000\u0000\u0000i\u0000\u0000\u0000s\u0000\u0000\u0000
p1153
g10
tp1154
Rp1155
tp1156
Rp1157
ag1
(g2
(VU9
p1158
I0
I1
tp1159
Rp1160
(I3
g6
NNNI36
I4
I8
tp1161
bg8
(Vt\u0000\u0000\u0000i\u0000\u0000\u0000e\u0000\u0000\u0000v\u0000\u0000\u0000o\u0000\u0000\u0000_\u0000\u0000\u0000s\u0000\u0000\u0000i\u0000\u0000\u0000s\u0000\u0000\u0000
p1162
g10
tp1163
Rp1164
tp1165
Rp1166
ag1
(g2
(VU5
p1167
I0
I1
tp1168
Rp1169
(I3
g6
NNNI20
I4
I8
tp1170
bg8
(Vt\u0000\u0000\u0000i\u0000\u0000\u0000e\u0000\u0000\u0000v\u0000\u0000\u0000o\u0000\u0000\u0000
p1171
g10
tp1172
Rp1173
tp1174
Rp1175
ag1
(g2
(VU5
p1176
I0
I1
tp1177
Rp1178
(I3
g6
NNNI20
I4
I8
tp1179
bg8
(Vt\u0000\u0000\u0000i\u0000\u0000\u0000e\u0000\u0000\u0000v\u0000\u0000\u0000o\u0000\u0000\u0000
p1180
g10
tp1181
Rp1182
tp1183
Rp1184
ag1
(g2
(VU5
p1185
I0
I1
tp1186
Rp1187
(I3
g6
NNNI20
I4
I8
tp1188
bg8
(Vt\u0000\u0000\u0000i\u0000\u0000\u0000e\u0000\u0000\u0000v\u0000\u0000\u0000o\u0000\u0000\u0000
p1189
g10
tp1190
Rp1191
tp1192
Rp1193
ag1
(g2
(VU5
p1194
I0
I1
tp1195
Rp1196
(I3
g6
NNNI20
I4
I8
tp1197
bg8
(Vt\u0000\u0000\u0000i\u0000\u0000\u0000e\u0000\u0000\u0000v\u0000\u0000\u0000o\u0000\u0000\u0000
p1198
g10
tp1199
Rp1200
tp1201
Rp1202
ag1
(g2
(VU5
p1203
I0
I1
tp1204
Rp1205
(I3
g6
NNNI20
I4
I8
tp1206
bg8
(Vt\u0000\u0000\u0000i\u0000\u0000\u0000e\u0000\u0000\u0000v\u0000\u0000\u0000o\u0000\u0000\u0000
p1207
g10
tp1208
Rp1209
tp1210
Rp1211
ag1
(g2
(VU5
p1212
I0
I1
tp1213
Rp1214
(I3
g6
NNNI20
I4
I8
tp1215
bg8
(Vt\u0000\u0000\u0000i\u0000\u0000\u0000e\u0000\u0000\u0000v\u0000\u0000\u0000o\u0000\u0000\u0000
p1216
g10
tp1217
Rp1218
tp1219
Rp1220
ag1
(g2
(VU5
p1221
I0
I1
tp1222
Rp1223
(I3
g6
NNNI20
I4
I8
tp1224
bg8
(Vt\u0000\u0000\u0000i\u0000\u0000\u0000e\u0000\u0000\u0000v\u0000\u0000\u0000o\u0000\u0000\u0000
p1225
g10
tp1226
Rp1227
tp1228
Rp1229
ag1
(g2
(VU5
p1230
I0
I1
tp1231
Rp1232
(I3
g6
NNNI20
I4
I8
tp1233
bg8
(Vt\u0000\u0000\u0000i\u0000\u0000\u0000e\u0000\u0000\u0000v\u0000\u0000\u0000o\u0000\u0000\u0000
p1234
g10
tp1235
Rp1236
tp1237
Rp1238
ag1
(g2
(VU5
p1239
I0
I1
tp1240
Rp1241
(I3
g6
NNNI20
I4
I8
tp1242
bg8
(Vt\u0000\u0000\u0000i\u0000\u0000\u0000e\u0000\u0000\u0000v\u0000\u0000\u0000o\u0000\u0000\u0000
p1243
g10
tp1244
Rp1245
tp1246
Rp1247
ag1
(g2
(VU5
p1248
I0
I1
tp1249
Rp1250
(I3
g6
NNNI20
I4
I8
tp1251
bg8
(Vt\u0000\u0000\u0000i\u0000\u0000\u0000e\u0000\u0000\u0000v\u0000\u0000\u0000o\u0000\u0000\u0000
p1252
g10
tp1253
Rp1254
tp1255
Rp1256
ag1
(g2
(VU5
p1257
I0
I1
tp1258
Rp1259
(I3
g6
NNNI20
I4
I8
tp1260
bg8
(Vt\u0000\u0000\u0000i\u0000\u0000\u0000e\u0000\u0000\u0000v\u0000\u0000\u0000o\u0000\u0000\u0000
p1261
g10
tp1262
Rp1263
tp1264
Rp1265
ag1
(g2
(VU5
p1266
I0
I1
tp1267
Rp1268
(I3
g6
NNNI20
I4
I8
tp1269
bg8
(Vt\u0000\u0000\u0000i\u0000\u0000\u0000e\u0000\u0000\u0000v\u0000\u0000\u0000o\u0000\u0000\u0000
p1270
g10
tp1271
Rp1272
tp1273
Rp1274
ag1
(g2
(VU5
p1275
I0
I1
tp1276
Rp1277
(I3
g6
NNNI20
I4
I8
tp1278
bg8
(Vt\u0000\u0000\u0000i\u0000\u0000\u0000e\u0000\u0000\u0000v\u0000\u0000\u0000o\u0000\u0000\u0000
p1279
g10
tp1280
Rp1281
tp1282
Rp1283
ag1
(g2
(VU5
p1284
I0
I1
tp1285
Rp1286
(I3
g6
NNNI20
I4
I8
tp1287
bg8
(Vt\u0000\u0000\u0000i\u0000\u0000\u0000e\u0000\u0000\u0000v\u0000\u0000\u0000o\u0000\u0000\u0000
p1288
g10
tp1289
Rp1290
tp1291
Rp1292
ag1
(g2
(VU5
p1293
I0
I1
tp1294
Rp1295
(I3
g6
NNNI20
I4
I8
tp1296
bg8
(Vt\u0000\u0000\u0000i\u0000\u0000\u0000e\u0000\u0000\u0000v\u0000\u0000\u0000o\u0000\u0000\u0000
p1297
g10
tp1298
Rp1299
tp1300
Rp1301
ag1
(g2
(VU5
p1302
I0
I1
tp1303
Rp1304
(I3
g6
NNNI20
I4
I8
tp1305
bg8
(Vt\u0000\u0000\u0000i\u0000\u0000\u0000e\u0000\u0000\u0000v\u0000\u0000\u0000o\u0000\u0000\u0000
p1306
g10
tp1307
Rp1308
tp1309
Rp1310
ag1
(g2
(VU5
p1311
I0
I1
tp1312
Rp1313
(I3
g6
NNNI20
I4
I8
tp1314
bg8
(Vt\u0000\u0000\u0000i\u0000\u0000\u0000e\u0000\u0000\u0000v\u0000\u0000\u0000o\u0000\u0000\u0000
p1315
g10
tp1316
Rp1317
tp1318
Rp1319
ag1
(g2
(VU5
p1320
I0
I1
tp1321
Rp1322
(I3
g6
NNNI20
I4
I8
tp1323
bg8
(Vt\u0000\u0000\u0000i\u0000\u0000\u0000e\u0000\u0000\u0000v\u0000\u0000\u0000o\u0000\u0000\u0000
p1324
g10
tp1325
Rp1326
tp1327
Rp1328
ag1
(g2
(VU5
p1329
I0
I1
tp1330
Rp1331
(I3
g6
NNNI20
I4
I8
tp1332
bg8
(Vt\u0000\u0000\u0000i\u0000\u0000\u0000e\u0000\u0000\u0000v\u0000\u0000\u0000o\u0000\u0000\u0000
p1333
g10
tp1334
Rp1335
tp1336
Rp1337
ag1
(g2
(VU5
p1338
I0
I1
tp1339
Rp1340
(I3
g6
NNNI20
I4
I8
tp1341
bg8
(Vt\u0000\u0000\u0000i\u0000\u0000\u0000e\u0000\u0000\u0000v\u0000\u0000\u0000o\u0000\u0000\u0000
p1342
g10
tp1343
Rp1344
tp1345
Rp1346
ag1
(g2
(VU5
p1347
I0
I1
tp1348
Rp1349
(I3
g6
NNNI20
I4
I8
tp1350
bg8
(Vt\u0000\u0000\u0000i\u0000\u0000\u0000e\u0000\u0000\u0000v\u0000\u0000\u0000o\u0000\u0000\u0000
p1351
g10
tp1352
Rp1353
tp1354
Rp1355
a.