(lp0
Vbren
p1
ag1
ag1
ag1
ag1
ag1
ag1
ag1
ag1
ag1
ag1
ag1
ag1
ag1
ag1
aVbren_mom
p2
ag2
ag2
ag2
ag2
ag2
ag2
aVdave
p3
ag3
ag3
ag3
ag3
ag3
ag3
ag3
ag3
ag3
aVdylan
p4
ag4
ag4
ag4
ag4
ag4
ag4
ag4
ag4
ag4
aVfabri
p5
ag5
ag5
ag5
ag5
ag5
ag5
ag5
ag5
ag5
ag5
aVfabri_dad
p6
ag6
ag6
ag6
ag6
ag6
ag6
ag6
ag6
ag6
ag6
aVfabri_mom
p7
ag7
ag7
ag7
ag7
ag7
ag7
ag7
ag7
ag7
ag7
ag7
aVian
p8
ag8
ag8
ag8
ag8
ag8
ag8
ag8
ag8
ag8
aVTati
p9
ag9
ag9
ag9
ag9
ag9
ag9
ag9
ag9
ag9
ag9
ag9
ag9
aVtievo
p10
ag10
ag10
ag10
ag10
ag10
ag10
ag10
ag10
ag10
ag10
ag10
ag10
ag10
ag10
ag10
ag10
ag10
ag10
ag10
ag10
aVtievo_dad
p11
ag11
ag11
ag11
ag11
ag11
ag11
ag11
ag11
ag11
ag11
ag11
aVtievo_mom
p12
ag12
ag12
ag12
ag12
ag12
ag12
ag12
ag12
ag12
ag12
ag12
ag12
aVtievo_sis
p13
ag13
ag13
ag13
ag13
ag13
ag13
ag13
ag13
ag13
ag13
ag13
a.